; Function Attrs: nounwind uwtable
define void @gvrender_begin_layer(ptr noundef %0) local_unnamed_addr #0 {
  %2 = getelementptr inbounds nuw i8, ptr %0, i64 120
  %3 = load ptr, ptr %2, align 8, !tbaa !47
  %.not = icmp eq ptr %3, null
  br i1 %.not, label %18, label %4

4:                                                ; preds = %1
  %5 = getelementptr inbounds nuw i8, ptr %3, i64 32
  %6 = load ptr, ptr %5, align 8, !tbaa !84
  %.not10 = icmp eq ptr %6, null
  br i1 %.not10, label %18, label %7

7:                                                ; preds = %4
  %8 = load ptr, ptr %0, align 8, !tbaa !3
  %9 = getelementptr inbounds nuw i8, ptr %8, i64 488
  %10 = load ptr, ptr %9, align 8, !tbaa !85
  %11 = getelementptr inbounds nuw i8, ptr %0, i64 288
  %12 = load i32, ptr %11, align 8, !tbaa !86
  %13 = sext i32 %12 to i64
  %14 = getelementptr inbounds ptr, ptr %10, i64 %13
  %15 = load ptr, ptr %14, align 8, !tbaa !87
  %16 = getelementptr inbounds nuw i8, ptr %0, i64 284
  %17 = load i32, ptr %16, align 4, !tbaa !88
  tail call void %6(ptr noundef nonnull %0, ptr noundef %15, i32 noundef %12, i32 noundef %17) #22
  br label %18

18:                                               ; preds = %4, %7, %1
  ret void
}